; Function Attrs: mustprogress nofree norecurse nosync nounwind willreturn memory(argmem: readwrite) uwtable
define dso_local void @flagTransaction(ptr noundef captures(none) %0) local_unnamed_addr #6 {
  %2 = getelementptr inbounds nuw i8, ptr %0, i64 8
  %3 = load i64, ptr %2, align 8, !tbaa !38
  %4 = and i64 %3, 8
  %.not = icmp eq i64 %4, 0
  br i1 %.not, label %7, label %5

5:                                                ; preds = %1
  %6 = or i64 %3, 4096
  store i64 %6, ptr %2, align 8, !tbaa !38
  br label %7

7:                                                ; preds = %5, %1
  ret void
}